; Function Attrs: mustprogress nofree norecurse nosync nounwind willreturn memory(read, argmem: write, inaccessiblemem: none) uwtable
define dso_local void @_ZN4llvm18StructurizeCFGPassC2Eb(ptr nocapture noundef nonnull writeonly align 1 dereferenceable(1) %0, i1 noundef zeroext %1) unnamed_addr #3 align 2 {
  %3 = zext i1 %1 to i8
  store i8 %3, ptr %0, align 1
  %4 = load i16, ptr getelementptr inbounds nuw (i8, ptr @_ZN12_GLOBAL__N_123ForceSkipUniformRegionsE, i64 8), align 8
  %.not = icmp eq i16 %4, 0
  br i1 %.not, label %8, label %5

5:                                                ; preds = %2
  %6 = load i8, ptr getelementptr inbounds (i8, ptr @_ZN12_GLOBAL__N_123ForceSkipUniformRegionsE, i64 128), align 8
  %7 = and i8 %6, 1
  store i8 %7, ptr %0, align 1
  br label %8

8:                                                ; preds = %5, %2
  ret void
}